; ModuleID = 'source-C-CXX/56/1020.c'
source_filename = "source-C-CXX/56/1020.c"
target datalayout = "e-m:e-p270:32:32-p271:32:32-p272:64:64-i64:64-f80:128-n8:16:32:64-S128"
target triple = "x86_64-pc-linux-gnu"

@.str = private unnamed_addr constant [3 x i8] c"%d\00", align 1
@.str.1 = private unnamed_addr constant [3 x i8] c"%s\00", align 1

; Function Attrs: nofree nounwind sspstrong uwtable
define dso_local i32 @main(i32 %0, i8** nocapture readnone %1) local_unnamed_addr #0 {
  %3 = alloca i32, align 4
  %4 = alloca [40 x i8], align 16
  %5 = bitcast i32* %3 to i8*
  call void @llvm.lifetime.start.p0i8(i64 4, i8* nonnull %5) #5
  %6 = call i32 (i8*, ...) @__isoc99_scanf(i8* getelementptr inbounds ([3 x i8], [3 x i8]* @.str, i64 0, i64 0), i32* nonnull %3)
  %7 = getelementptr inbounds [40 x i8], [40 x i8]* %4, i64 0, i64 0
  call void @llvm.lifetime.start.p0i8(i64 40, i8* nonnull %7) #5
  %8 = load i32, i32* %3, align 4, !tbaa !5
  %9 = icmp slt i32 %8, 1
  br i1 %9, label %52, label %10

10:                                               ; preds = %2, %47
  %11 = phi i32 [ %49, %47 ], [ 1, %2 ]
  %12 = call i32 (i8*, ...) @__isoc99_scanf(i8* getelementptr inbounds ([3 x i8], [3 x i8]* @.str.1, i64 0, i64 0), i8* nonnull %7)
  %13 = call i64 @strlen(i8* noundef nonnull %7) #6
  %14 = shl i64 %13, 32
  %15 = add i64 %14, -8589934592
  %16 = ashr exact i64 %15, 32
  %17 = getelementptr inbounds [40 x i8], [40 x i8]* %4, i64 0, i64 %16
  %18 = load i8, i8* %17, align 1, !tbaa !9
  switch i8 %18, label %31 [
    i8 101, label %19
    i8 108, label %25
  ]

19:                                               ; preds = %10
  %20 = add i64 %14, -4294967296
  %21 = ashr exact i64 %20, 32
  %22 = getelementptr inbounds [40 x i8], [40 x i8]* %4, i64 0, i64 %21
  %23 = load i8, i8* %22, align 1, !tbaa !9
  %24 = icmp eq i8 %23, 114
  br i1 %24, label %45, label %31

25:                                               ; preds = %10
  %26 = add i64 %14, -4294967296
  %27 = ashr exact i64 %26, 32
  %28 = getelementptr inbounds [40 x i8], [40 x i8]* %4, i64 0, i64 %27
  %29 = load i8, i8* %28, align 1, !tbaa !9
  %30 = icmp eq i8 %29, 121
  br i1 %30, label %45, label %31

31:                                               ; preds = %10, %19, %25
  %32 = add i64 %14, -12884901888
  %33 = ashr exact i64 %32, 32
  %34 = getelementptr inbounds [40 x i8], [40 x i8]* %4, i64 0, i64 %33
  %35 = load i8, i8* %34, align 1, !tbaa !9
  %36 = icmp eq i8 %35, 105
  %37 = icmp eq i8 %18, 110
  %38 = select i1 %36, i1 %37, i1 false
  br i1 %38, label %39, label %47

39:                                               ; preds = %31
  %40 = add i64 %14, -4294967296
  %41 = ashr exact i64 %40, 32
  %42 = getelementptr inbounds [40 x i8], [40 x i8]* %4, i64 0, i64 %41
  %43 = load i8, i8* %42, align 1, !tbaa !9
  %44 = icmp eq i8 %43, 103
  br i1 %44, label %45, label %47

45:                                               ; preds = %39, %25, %19
  %46 = phi i8* [ %17, %19 ], [ %17, %25 ], [ %34, %39 ]
  store i8 0, i8* %46, align 1, !tbaa !9
  br label %47

47:                                               ; preds = %45, %39, %31
  %48 = call i32 @puts(i8* nonnull %7)
  %49 = add nuw nsw i32 %11, 1
  %50 = load i32, i32* %3, align 4, !tbaa !5
  %51 = icmp slt i32 %11, %50
  br i1 %51, label %10, label %52, !llvm.loop !10

52:                                               ; preds = %47, %2
  call void @llvm.lifetime.end.p0i8(i64 40, i8* nonnull %7) #5
  call void @llvm.lifetime.end.p0i8(i64 4, i8* nonnull %5) #5
  ret i32 0
}

; Function Attrs: argmemonly mustprogress nofree nosync nounwind willreturn
declare void @llvm.lifetime.start.p0i8(i64 immarg, i8* nocapture) #1

; Function Attrs: nofree nounwind
declare noundef i32 @__isoc99_scanf(i8* nocapture noundef readonly, ...) local_unnamed_addr #2

; Function Attrs: argmemonly mustprogress nofree nounwind readonly willreturn
declare i64 @strlen(i8* nocapture) local_unnamed_addr #3

; Function Attrs: argmemonly mustprogress nofree nosync nounwind willreturn
declare void @llvm.lifetime.end.p0i8(i64 immarg, i8* nocapture) #1

; Function Attrs: nofree nounwind
declare noundef i32 @puts(i8* nocapture noundef readonly) local_unnamed_addr #4


!llvm.module.flags = !{!0, !1, !2, !3}
!llvm.ident = !{!4}

!0 = !{i32 1, !"wchar_size", i32 4}
!1 = !{i32 7, !"PIC Level", i32 2}
!2 = !{i32 7, !"PIE Level", i32 2}
!3 = !{i32 7, !"uwtable", i32 1}
!4 = !{!"clang version 13.0.0"}
!5 = !{!6, !6, i64 0}
!6 = !{!"int", !7, i64 0}
!7 = !{!"omnipotent char", !8, i64 0}
!8 = !{!"Simple C/C++ TBAA"}
!9 = !{!7, !7, i64 0}
!10 = distinct !{!10, !11}
!11 = !{!"llvm.loop.mustprogress"}
